Certificate:
    Data:
        Version: 3 (0x2)
        Serial Number: 4096 (0x1000)
        Signature Algorithm: sha256WithRSAEncryption
        Issuer: C=CN, ST=Beijing, L=Beijing, O=tencent.com, CN=*.cluster.local
        Validity
            Not Before: Jul 19 06:36:01 2022 GMT
            Not After : Jun 25 06:36:01 2122 GMT
        Subject: CN=*.cluster.local, ST=Beijing, C=CN, O=tencent.com
        Subject Public Key Info:
            Public Key Algorithm: rsaEncryption
                RSA Public-Key: (4096 bit)
                Modulus:
                    00:bf:07:08:b8:70:91:d9:34:7f:28:2f:d9:74:7f:
                    f9:e8:58:53:c3:dd:c7:16:da:bf:fc:58:9e:80:0f:
                    53:4d:ae:26:25:5f:54:4e:93:ca:0b:21:4e:ca:b8:
                    3c:aa:3a:46:82:55:42:27:4a:67:ac:49:e6:22:73:
                    da:ee:3b:f1:b8:2d:d7:61:79:36:00:68:58:c8:b1:
                    05:dd:b9:0f:c5:24:82:ad:b3:b1:9e:3d:17:30:72:
                    c2:3b:4f:aa:75:b6:61:f2:45:9d:b8:07:ec:d4:fe:
                    46:6c:a5:28:12:72:7c:01:b9:ad:a5:94:ed:eb:a2:
                    b7:fb:b3:8a:ce:a3:98:b8:e1:56:ce:9a:83:1d:78:
                    70:94:7c:ad:ca:13:c9:8b:95:d4:68:51:6f:66:a9:
                    4c:0d:e5:b7:8e:4c:39:1f:b5:d0:6a:d0:7e:fa:12:
                    b1:6b:e2:aa:57:b1:52:5d:8b:71:ac:01:2d:5a:c3:
                    b2:13:f6:47:53:3f:b6:df:20:a5:d1:2e:5f:14:9b:
                    2f:71:63:65:ef:c6:ae:d7:5a:3c:cd:61:9d:fa:e6:
                    0b:28:53:88:e8:8f:7a:7d:bd:c8:a9:bd:1b:8b:8a:
                    71:c0:8d:a9:80:11:64:5e:68:10:e9:5a:ca:ac:d8:
                    98:89:51:49:c4:6f:9f:b9:6f:bf:81:dc:ce:64:2c:
                    14:6f:be:e3:db:1d:76:7c:42:ef:70:91:9f:a1:7c:
                    7a:43:47:7b:4b:0a:75:32:59:41:fa:0e:37:78:8d:
                    74:6e:77:73:ab:2e:7d:ab:59:e6:ca:bc:3a:8c:7c:
                    d8:26:fc:0c:53:19:da:c7:e5:f3:8e:35:8e:d8:ed:
                    fa:fc:ee:25:2c:74:ed:f2:24:96:be:5b:f4:55:3f:
                    61:fd:65:d3:f6:37:18:34:53:eb:bc:87:a0:a9:60:
                    f7:2c:fa:0f:15:75:f3:f3:a1:78:b0:06:91:be:8d:
                    5b:52:ce:4c:84:47:94:fb:02:88:f8:e2:ba:b6:8b:
                    c4:46:b0:72:89:a3:47:55:70:12:ea:bf:71:1e:90:
                    06:52:42:4a:17:88:1e:16:66:56:9c:c5:95:3a:7a:
                    4e:f8:91:26:ee:b2:d0:2f:a8:4c:81:82:8d:de:91:
                    eb:33:56:66:92:6f:a1:a1:60:20:19:9d:03:a8:4a:
                    69:d5:6a:53:62:92:a0:72:72:9a:68:76:95:de:4d:
                    6b:43:14:67:1d:6c:ce:db:59:63:f5:88:fc:80:f5:
                    6f:49:e9:5a:64:dd:fa:3d:9a:b9:1a:05:84:db:43:
                    64:63:5f:26:5d:fe:04:3d:b3:fb:45:b3:c9:75:8f:
                    3b:f7:85:0c:2a:9e:66:ec:49:40:14:6b:53:ca:ea:
                    a5:93:3f
                Exponent: 65537 (0x10001)
        X509v3 extensions:
            X509v3 Basic Constraints: critical
                CA:TRUE, pathlen:0
            X509v3 Subject Key Identifier: 
                56:A4:33:9D:D5:9F:F4:07:92:ED:1B:F5:8B:D9:E0:05:EA:3F:F7:F9
            X509v3 Authority Key Identifier: 
                keyid:8E:7A:D4:D3:45:01:14:91:83:AE:06:71:4E:D0:98:0B:2E:D1:3A:4F

            X509v3 Key Usage: 
                Digital Signature, Key Encipherment, Certificate Sign, CRL Sign
            X509v3 Extended Key Usage: 
                TLS Web Server Authentication, TLS Web Client Authentication
    Signature Algorithm: sha256WithRSAEncryption
         3a:20:5c:7b:c2:bb:d1:eb:1a:15:0b:a4:be:fe:f0:05:73:10:
         7c:01:e8:89:2f:a9:53:9f:de:d9:e8:f9:cd:9e:fd:86:5f:99:
         15:50:2c:79:8c:30:6c:c6:96:fa:15:27:db:1c:39:65:cc:c4:
         52:a8:c8:34:b1:a4:dd:a8:c0:b6:24:ba:87:e8:62:d1:26:24:
         94:64:dd:5d:41:b0:6d:2d:16:36:6e:d1:16:98:6a:1a:8a:67:
         98:4d:6d:10:84:b4:1f:bc:4d:da:ea:5b:cb:e9:4f:d3:ad:94:
         8e:95:7b:d4:ec:4f:17:8f:20:45:76:e7:fb:02:0f:f5:4f:84:
         8c:06:e4:04:a9:07:a6:79:e5:d1:ed:4b:02:e9:30:25:36:fd:
         a2:df:35:67:16:e9:bb:8a:b3:92:1a:b5:41:f3:23:0e:8d:4f:
         71:e4:ab:04:49:b3:7d:40:02:1c:1a:86:a9:d3:cd:a6:ef:73:
         45:f9:e9:c8:12:bf:25:1c:54:39:ab:f8:29:bb:84:b5:47:9f:
         5a:0d:a2:fb:c0:94:80:c5:17:bd:b6:5b:ba:c4:84:09:73:99:
         b3:e3:18:a3:a3:49:6a:01:e4:38:43:2a:6b:00:53:1c:27:40:
         6b:c2:3b:33:f3:58:c7:b1:a1:a7:be:6b:71:95:7c:f0:e9:f5:
         ae:12:3f:c7:8c:61:47:3b:f8:e2:37:3c:f7:54:a9:d1:1d:a2:
         c2:f9:d5:59:4a:8d:ac:e5:94:1b:8e:a5:d4:ca:a1:5e:a0:03:
         c9:9d:3d:1b:a0:33:4b:c9:26:88:c0:2d:f1:c9:a3:da:67:a3:
         14:c1:e2:90:69:a2:d0:ef:70:54:b7:11:cf:0e:d1:e9:82:71:
         fd:b1:c3:16:49:d7:1d:48:cb:80:6c:77:d8:e7:74:1c:6a:94:
         a2:db:bb:1e:a3:da:97:ff:a7:44:35:25:b6:36:29:b0:f0:b2:
         96:fd:dc:7c:3e:8a:eb:58:27:2d:cc:eb:2c:23:30:56:96:a8:
         2f:8f:72:63:61:d5:68:e7:a5:b7:07:96:ff:38:98:11:d5:68:
         58:15:06:13:8c:9b:31:52:75:00:84:fe:9a:11:35:de:aa:45:
         5e:57:00:ac:22:51:7a:9d:67:d3:96:7e:7c:ff:ed:57:16:58:
         74:f0:39:bd:67:61:da:cc:f3:b2:67:28:49:c8:c2:bf:9f:7a:
         68:41:16:94:c0:3e:1a:9c:9e:cb:6e:8e:6e:7e:e6:dc:ce:b9:
         8c:73:7c:12:d1:08:39:ff:b2:78:be:b1:d2:97:7d:af:35:05:
         0c:24:ff:59:9c:a4:f7:b9:c5:93:f5:45:0f:9c:5a:ab:40:7f:
         f4:ac:e0:91:06:77:60:ff
-----BEGIN CERTIFICATE-----
MIIFsjCCA5qgAwIBAgICEAAwDQYJKoZIhvcNAQELBQAwYTELMAkGA1UEBhMCQ04x
EDAOBgNVBAgMB0JlaWppbmcxEDAOBgNVBAcMB0JlaWppbmcxFDASBgNVBAoMC3Rl
bmNlbnQuY29tMRgwFgYDVQQDDA8qLmNsdXN0ZXIubG9jYWwwIBcNMjIwNzE5MDYz
NjAxWhgPMjEyMjA2MjUwNjM2MDFaME8xGDAWBgNVBAMMDyouY2x1c3Rlci5sb2Nh
bDEQMA4GA1UECAwHQmVpamluZzELMAkGA1UEBhMCQ04xFDASBgNVBAoMC3RlbmNl
bnQuY29tMIICIjANBgkqhkiG9w0BAQEFAAOCAg8AMIICCgKCAgEAvwcIuHCR2TR/
KC/ZdH/56FhTw93HFtq//FiegA9TTa4mJV9UTpPKCyFOyrg8qjpGglVCJ0pnrEnm
InPa7jvxuC3XYXk2AGhYyLEF3bkPxSSCrbOxnj0XMHLCO0+qdbZh8kWduAfs1P5G
bKUoEnJ8AbmtpZTt66K3+7OKzqOYuOFWzpqDHXhwlHytyhPJi5XUaFFvZqlMDeW3
jkw5H7XQatB++hKxa+KqV7FSXYtxrAEtWsOyE/ZHUz+23yCl0S5fFJsvcWNl78au
11o8zWGd+uYLKFOI6I96fb3Iqb0bi4pxwI2pgBFkXmgQ6VrKrNiYiVFJxG+fuW+/
gdzOZCwUb77j2x12fELvcJGfoXx6Q0d7Swp1MllB+g43eI10bndzqy59q1nmyrw6
jHzYJvwMUxnax+XzjjWO2O36/O4lLHTt8iSWvlv0VT9h/WXT9jcYNFPrvIegqWD3
LPoPFXXz86F4sAaRvo1bUs5MhEeU+wKI+OK6tovERrByiaNHVXAS6r9xHpAGUkJK
F4geFmZWnMWVOnpO+JEm7rLQL6hMgYKN3pHrM1Zmkm+hoWAgGZ0DqEpp1WpTYpKg
cnKaaHaV3k1rQxRnHWzO21lj9Yj8gPVvSelaZN36PZq5GgWE20NkY18mXf4EPbP7
RbPJdY8794UMKp5m7ElAFGtTyuqlkz8CAwEAAaOBgzCBgDASBgNVHRMBAf8ECDAG
AQH/AgEAMB0GA1UdDgQWBBRWpDOd1Z/0B5LtG/WL2eAF6j/3+TAfBgNVHSMEGDAW
gBSOetTTRQEUkYOuBnFO0JgLLtE6TzALBgNVHQ8EBAMCAaYwHQYDVR0lBBYwFAYI
KwYBBQUHAwEGCCsGAQUFBwMCMA0GCSqGSIb3DQEBCwUAA4ICAQA6IFx7wrvR6xoV
C6S+/vAFcxB8AeiJL6lTn97Z6PnNnv2GX5kVUCx5jDBsxpb6FSfbHDllzMRSqMg0
saTdqMC2JLqH6GLRJiSUZN1dQbBtLRY2btEWmGoaimeYTW0QhLQfvE3a6lvL6U/T
rZSOlXvU7E8XjyBFduf7Ag/1T4SMBuQEqQemeeXR7UsC6TAlNv2i3zVnFum7irOS
GrVB8yMOjU9x5KsESbN9QAIcGoap082m73NF+enIEr8lHFQ5q/gpu4S1R59aDaL7
wJSAxRe9tlu6xIQJc5mz4xijo0lqAeQ4QyprAFMcJ0Brwjsz81jHsaGnvmtxlXzw
6fWuEj/HjGFHO/jiNzz3VKnRHaLC+dVZSo2s5ZQbjqXUyqFeoAPJnT0boDNLySaI
wC3xyaPaZ6MUweKQaaLQ73BUtxHPDtHpgnH9scMWSdcdSMuAbHfY53QcapSi27se
o9qX/6dENSW2Nimw8LKW/dx8PorrWCctzOssIzBWlqgvj3JjYdVo56W3B5b/OJgR
1WhYFQYTjJsxUnUAhP6aETXeqkVeVwCsIlF6nWfTln58/+1XFlh08Dm9Z2HazPOy
ZyhJyMK/n3poQRaUwD4anJ7Lbo5ufubczrmMc3wS0Qg5/7J4vrHSl32vNQUMJP9Z
nKT3ucWT9UUPnFqrQH/0rOCRBndg/w==
-----END CERTIFICATE-----
-----BEGIN CERTIFICATE-----
MIIFozCCA4ugAwIBAgIUTfDWcvqeTGnd3BOsN0W7/FcZSxUwDQYJKoZIhvcNAQEL
BQAwYTELMAkGA1UEBhMCQ04xEDAOBgNVBAgMB0JlaWppbmcxEDAOBgNVBAcMB0Jl
aWppbmcxFDASBgNVBAoMC3RlbmNlbnQuY29tMRgwFgYDVQQDDA8qLmNsdXN0ZXIu
bG9jYWwwIBcNMjIwNzE5MDYzNjAwWhgPMjEyMjA2MjUwNjM2MDBaMGExCzAJBgNV
BAYTAkNOMRAwDgYDVQQIDAdCZWlqaW5nMRAwDgYDVQQHDAdCZWlqaW5nMRQwEgYD
VQQKDAt0ZW5jZW50LmNvbTEYMBYGA1UEAwwPKi5jbHVzdGVyLmxvY2FsMIICIjAN
BgkqhkiG9w0BAQEFAAOCAg8AMIICCgKCAgEAqHKN5fxTqdlSO8OFpsfpgsGNbw3s
cVh4YxpeT3Q9iN8r+ZCHi0PVW6hW0L2atCcBB9LdXHuRAp6tyAypluInHWHcSbQu
yrNe+Qz/2q92RI6xCUGqmc30PtvBJM8SO9MbNLq9hAaFt8SSTuEowNtE45YlhUlY
6tgPhRBS2tCU/6Fvys0j2ewOp0gAVEiqzkbh9OGh+cxvbnPzSeKob53ceTfMxx80
n2zNYqfv5NNPwDjyafjjQobANmdDcrIQSpTmpDd4N+WBQJclpeCTzc+CZQe+w/X3
yLnh0kbZW8ta9J3aIy6zsrra455AKSxofSWfmYZ0c+6aftvmMJwrRyewdo01hIWl
sBz971U8gAhrs505K3OTIqj0GHMUHbr60yKA7D/DyZ4iGGmBLakdB9ypgG/qslfT
QIciGLLAQmM/CzJRQPlQCu20AdnEmbshj+n3FuzOrsb8IkmIjBMQwnQDsD9DFfia
IIEggk7oIDy0Y1ACwmAMkUy5yEEL+ul7s2YhPuFUAD/IH6+sX1+/GyJmLNFNi0sH
MWmIo8WpfIMlyxaYug2wBobbtjHXqABqHflWASptSFGJP0pNT7eiLk79YU99PLQ4
GqHSLtZqtRVEqvecijU64ZGeGLK7HBnnfTSKIBSM9o2n/IupNai9nLwKkhZ02rGO
Yp9CFjeupF5hbZcCAwEAAaNRME8wDwYDVR0TAQH/BAUwAwEB/zAdBgNVHQ4EFgQU
jnrU00UBFJGDrgZxTtCYCy7ROk8wHQYDVR0lBBYwFAYIKwYBBQUHAwEGCCsGAQUF
BwMCMA0GCSqGSIb3DQEBCwUAA4ICAQAAqLU/erpNWZXUgxRsnUz9y4nTvMarpQut
KaMqc08uNH2yRsAEJCOjxD732SgDGItjFohgP8qHGWPChdvcFuDBckPANqtku4GK
cNm8cF3Br8RC9O23Aqn8YnL/0rDVwbROWcj0eu3/pG0cmuqpREKo9SXebJSDZUxs
vaEYFwWS6bi8QjzY/O3yLYWyBJ9qg0DjUD76e7joAidoAMD/ZEHAasmqUYI2rt1q
/DVbRcjrMJHd1mUkl7W6UQzP4bJGYtlIXXpIkC5CLXJTAsDC5jhJKyLaBDpG2Ev1
ISjFwUxz5x5fxr/3XQ287CvCPXAB2IBV5LomZL8/Mf390wusH1Pc0wLQ/SXoR615
KBd9HuHPej4SYw4ga+e7UngXTJegKg7OCUyLEeMHMjhfzdaLqygkEKmdEE8IFZuj
nN1AE+TyjAuD8J1keUmZiyDtERTdnZ/EkeMldesjj9Yg1NO0Ptlx3+MvNKzk3/pv
daVm8mBJSUTZsEWOqH5pgDebt2LF/uYKAwDhgh8VB2mjFvgrbId/wcKSWH1PkGqi
QDYeHmYawdBwhp2UEquqZ1e7zak/BF26gQms5jpVFgjMyAkSvN3bwqdjZXQk3eEg
gALmvdfY9vjygse8KnU7odUk+TibdcfGrleqJYItzG/v59BX42Fp6y2VAhiBwkpA
Df2/sbam4A==
-----END CERTIFICATE-----
